target datalayout = "e-m:e-p270:32:32-p271:32:32-p272:64:64-i64:64-i128:128-f80:128-n8:16:32:64-S128"
target triple = "x86_64-pc-linux-gnu"

; Function Attrs: mustprogress nounwind uwtable
define noundef i64 @_ZN5boost10stacktrace6detail4dumpEiPKPKvm(i32 noundef %0, ptr noundef %1, i64 noundef %2) #0 personality ptr @__gxx_personality_v0 {
  %4 = alloca i64, align 8
  %5 = alloca i32, align 4
  %6 = alloca ptr, align 8
  %7 = alloca i64, align 8
  store i32 %0, ptr %5, align 4, !tbaa !3
  store ptr %1, ptr %6, align 8, !tbaa !7
  store i64 %2, ptr %7, align 8, !tbaa !9
  %8 = load i32, ptr %5, align 4, !tbaa !3
  %9 = load ptr, ptr %6, align 8, !tbaa !7
  %10 = load i64, ptr %7, align 8, !tbaa !9
  %11 = mul i64 8, %10
  %12 = invoke i64 @write(i32 noundef %8, ptr noundef %9, i64 noundef %11)
          to label %13 unwind label %20

13:                                               ; preds = %3
  %14 = icmp eq i64 %12, -1
  br i1 %14, label %15, label %16

15:                                               ; preds = %13
  store i64 0, ptr %4, align 8
  br label %18

16:                                               ; preds = %13
  %17 = load i64, ptr %7, align 8, !tbaa !9
  store i64 %17, ptr %4, align 8
  br label %18

18:                                               ; preds = %16, %15
  %19 = load i64, ptr %4, align 8
  ret i64 %19

20:                                               ; preds = %3
  %21 = landingpad { ptr, i32 }
          catch ptr null
  %22 = extractvalue { ptr, i32 } %21, 0
  call void @__clang_call_terminate(ptr %22) #16
  unreachable
}