; Function Attrs: mustprogress nounwind uwtable
define noundef i64 @_ZN5boost10stacktrace6detail4dumpEiPKPKvm(i32 noundef %0, ptr nocapture noundef readonly %1, i64 noundef %2) local_unnamed_addr #0 personality ptr @__gxx_personality_v0 {
  %4 = shl i64 %2, 3
  %5 = invoke i64 @write(i32 noundef %0, ptr noundef %1, i64 noundef %4)
          to label %6 unwind label %8

6:                                                ; preds = %3
  %7 = icmp eq i64 %5, -1
  %. = select i1 %7, i64 0, i64 %2
  ret i64 %.

8:                                                ; preds = %3
  %9 = landingpad { ptr, i32 }
          catch ptr null
  %10 = extractvalue { ptr, i32 } %9, 0
  tail call void @__clang_call_terminate(ptr %10) #21
  unreachable
}